; ModuleID = '40/1313.c'
source_filename = "40/1313.c"
target datalayout = "e-m:e-p270:32:32-p271:32:32-p272:64:64-i64:64-f80:128-n8:16:32:64-S128"
target triple = "x86_64-pc-linux-gnu"

@.str = private unnamed_addr constant [16 x i8] c"%lf%lf%lf%lf%lf\00", align 1
@.str.1 = private unnamed_addr constant [15 x i8] c"Invalid input\0A\00", align 1
@.str.2 = private unnamed_addr constant [7 x i8] c"%.4lf\0A\00", align 1

; Function Attrs: noinline nounwind uwtable
define dso_local i32 @main() #0 {
  %1 = alloca i32, align 4
  %2 = alloca double, align 8
  %3 = alloca double, align 8
  %4 = alloca double, align 8
  %5 = alloca double, align 8
  %6 = alloca double, align 8
  %7 = alloca double, align 8
  %8 = alloca double, align 8
  %9 = alloca double, align 8
  %10 = alloca double, align 8
  %11 = alloca double, align 8
  store i32 0, i32* %1, align 4
  %12 = call i32 (i8*, ...) @__isoc99_scanf(i8* getelementptr inbounds ([16 x i8], [16 x i8]* @.str, i64 0, i64 0), double* %2, double* %3, double* %4, double* %5, double* %8)
  %13 = load double, double* %8, align 8
  %14 = fcmp olt double 0.000000e+00, %13
  %15 = zext i1 %14 to i32
  %16 = icmp slt i32 %15, 360
  %17 = zext i1 %16 to i32
  %18 = load double, double* %8, align 8
  %19 = fmul double 1.000000e+02, %18
  %20 = fdiv double %19, 1.800000e+02
  %21 = fdiv double %20, 2.000000e+00
  store double %21, double* %11, align 8
  %22 = load double, double* %2, align 8
  %23 = load double, double* %3, align 8
  %24 = fadd double %22, %23
  %25 = load double, double* %4, align 8
  %26 = fadd double %24, %25
  %27 = load double, double* %5, align 8
  %28 = fadd double %26, %27
  %29 = fdiv double %28, 2.000000e+00
  store double %29, double* %6, align 8
  %30 = load double, double* %11, align 8
  %31 = call double @cos(double %30) #3
  %32 = call double @pow(double %31, double 2.000000e+00) #3
  store double %32, double* %9, align 8
  %33 = load double, double* %6, align 8
  %34 = load double, double* %2, align 8
  %35 = fsub double %33, %34
  %36 = load double, double* %6, align 8
  %37 = load double, double* %3, align 8
  %38 = fsub double %36, %37
  %39 = fmul double %35, %38
  %40 = load double, double* %6, align 8
  %41 = load double, double* %4, align 8
  %42 = fsub double %40, %41
  %43 = fmul double %39, %42
  %44 = load double, double* %6, align 8
  %45 = load double, double* %5, align 8
  %46 = fsub double %44, %45
  %47 = fmul double %43, %46
  %48 = load double, double* %2, align 8
  %49 = load double, double* %3, align 8
  %50 = fmul double %48, %49
  %51 = load double, double* %4, align 8
  %52 = fmul double %50, %51
  %53 = load double, double* %5, align 8
  %54 = fmul double %52, %53
  %55 = load double, double* %9, align 8
  %56 = fmul double %54, %55
  %57 = fsub double %47, %56
  store double %57, double* %10, align 8
  %58 = load double, double* %10, align 8
  %59 = fcmp olt double %58, 0.000000e+00
  br i1 %59, label %60, label %62

60:                                               ; preds = %0
  %61 = call i32 (i8*, ...) @printf(i8* getelementptr inbounds ([15 x i8], [15 x i8]* @.str.1, i64 0, i64 0))
  br label %91

62:                                               ; preds = %0
  %63 = load double, double* %6, align 8
  %64 = load double, double* %2, align 8
  %65 = fsub double %63, %64
  %66 = load double, double* %6, align 8
  %67 = load double, double* %3, align 8
  %68 = fsub double %66, %67
  %69 = fmul double %65, %68
  %70 = load double, double* %6, align 8
  %71 = load double, double* %4, align 8
  %72 = fsub double %70, %71
  %73 = fmul double %69, %72
  %74 = load double, double* %6, align 8
  %75 = load double, double* %5, align 8
  %76 = fsub double %74, %75
  %77 = fmul double %73, %76
  %78 = load double, double* %2, align 8
  %79 = load double, double* %3, align 8
  %80 = fmul double %78, %79
  %81 = load double, double* %4, align 8
  %82 = fmul double %80, %81
  %83 = load double, double* %5, align 8
  %84 = fmul double %82, %83
  %85 = load double, double* %9, align 8
  %86 = fmul double %84, %85
  %87 = fsub double %77, %86
  %88 = call double @sqrt(double %87) #3
  store double %88, double* %7, align 8
  %89 = load double, double* %7, align 8
  %90 = call i32 (i8*, ...) @printf(i8* getelementptr inbounds ([7 x i8], [7 x i8]* @.str.2, i64 0, i64 0), double %89)
  br label %91

91:                                               ; preds = %62, %60
  ret i32 0
}

declare dso_local i32 @__isoc99_scanf(i8*, ...) #1

; Function Attrs: nounwind
declare dso_local double @pow(double, double) #2

; Function Attrs: nounwind
declare dso_local double @cos(double) #2

declare dso_local i32 @printf(i8*, ...) #1

; Function Attrs: nounwind
declare dso_local double @sqrt(double) #2


!llvm.module.flags = !{!0}
!llvm.ident = !{!1}

!0 = !{i32 1, !"wchar_size", i32 4}
!1 = !{!"clang version 10.0.0-4ubuntu1 "}
